; Function Attrs: mustprogress uwtable
define noundef nonnull align 8 dereferenceable(57) ptr @_ZN32pxrInternal_v0_24__pxrReserved__14SdfPathPattern14AppendPropertyERKNSt7__cxx1112basic_stringIcSt11char_traitsIcESaIcEEERKNS_22SdfPredicateExpressionE(ptr noundef nonnull returned align 8 dereferenceable(57) %0, ptr noundef nonnull align 8 dereferenceable(32) %1, ptr noundef nonnull align 8 dereferenceable(80) %2) local_unnamed_addr #1 align 2 personality ptr @__gxx_personality_v0 {
  %4 = alloca %"class.pxrInternal_v0_24__pxrReserved__::SdfPredicateExpression", align 8
  call void @_ZN32pxrInternal_v0_24__pxrReserved__22SdfPredicateExpressionC2ERKS0_(ptr noundef nonnull align 8 dereferenceable(80) %4, ptr noundef nonnull align 8 dereferenceable(80) %2)
  %5 = invoke noundef nonnull align 8 dereferenceable(57) ptr @_ZN32pxrInternal_v0_24__pxrReserved__14SdfPathPattern14AppendPropertyERKNSt7__cxx1112basic_stringIcSt11char_traitsIcESaIcEEEONS_22SdfPredicateExpressionE(ptr noundef nonnull align 8 dereferenceable(57) %0, ptr noundef nonnull align 8 dereferenceable(32) %1, ptr noundef nonnull align 8 dereferenceable(80) %4)
          to label %6 unwind label %16

6:                                                ; preds = %3
  %7 = getelementptr inbounds nuw i8, ptr %4, i64 48
  call void @_ZNSt7__cxx1112basic_stringIcSt11char_traitsIcESaIcEED1Ev(ptr noundef nonnull align 8 dereferenceable(32) %7) #17
  %8 = getelementptr inbounds nuw i8, ptr %4, i64 24
  call void @_ZNSt6vectorIN32pxrInternal_v0_24__pxrReserved__22SdfPredicateExpression6FnCallESaIS2_EED2Ev(ptr noundef nonnull align 8 dereferenceable(24) %8) #17
  %9 = load ptr, ptr %4, align 8
  %.not.i.i.i.i = icmp eq ptr %9, null
  br i1 %.not.i.i.i.i, label %_ZN32pxrInternal_v0_24__pxrReserved__22SdfPredicateExpressionD2Ev.exit, label %10

10:                                               ; preds = %6
  %11 = getelementptr inbounds nuw i8, ptr %4, i64 16
  %12 = load ptr, ptr %11, align 8
  %13 = ptrtoint ptr %12 to i64
  %14 = ptrtoint ptr %9 to i64
  %15 = sub i64 %13, %14
  call void @_ZdlPvm(ptr noundef nonnull %9, i64 noundef %15) #19
  br label %_ZN32pxrInternal_v0_24__pxrReserved__22SdfPredicateExpressionD2Ev.exit

_ZN32pxrInternal_v0_24__pxrReserved__22SdfPredicateExpressionD2Ev.exit: ; preds = %6, %10
  ret ptr %0

16:                                               ; preds = %3
  %17 = landingpad { ptr, i32 }
          cleanup
  call void @_ZN32pxrInternal_v0_24__pxrReserved__22SdfPredicateExpressionD2Ev(ptr noundef nonnull align 8 dereferenceable(80) %4) #17
  resume { ptr, i32 } %17
}